target datalayout = "e-m:e-p270:32:32-p271:32:32-p272:64:64-i64:64-i128:128-f80:128-n8:16:32:64-S128"
target triple = "x86_64-pc-linux-gnu"

@H5PL_num_paths_g = internal global i32 0, align 4
@H5PL_paths_g = internal global ptr null, align 8
@.str = private unnamed_addr constant [102 x i8] c"generated/home/dtcxzyw/WorkSpace/Projects/compilers/llvm-opt-benchmark/bench/hdf5/hdf5/src/H5PLpath.c\00", align 1
@H5E_PLUGIN_g = external global i64, align 8
@__func__.H5PL__remove_path = private unnamed_addr constant [18 x i8] c"H5PL__remove_path\00", align 1
@H5E_CANTDELETE_g = external global i64, align 8
@.str.11 = private unnamed_addr constant [32 x i8] c"search path at index %u is NULL\00", align 1

; Function Attrs: nounwind uwtable
define i32 @H5PL__remove_path(i32 noundef %0) #0 {
  %2 = alloca i32, align 4
  %3 = alloca i32, align 4
  %4 = alloca i32, align 4
  %5 = alloca i8, align 1
  store i32 %0, ptr %2, align 4
  store i32 0, ptr %4, align 4
  store i8 0, ptr %5, align 1
  %6 = load ptr, ptr @H5PL_paths_g, align 8
  %7 = load i32, ptr %2, align 4
  %8 = zext i32 %7 to i64
  %9 = getelementptr inbounds ptr, ptr %6, i64 %8
  %10 = load ptr, ptr %9, align 8
  %11 = icmp ne ptr %10, null
  br i1 %11, label %28, label %12

12:                                               ; preds = %1
  br label %13

13:                                               ; preds = %12
  br label %14

14:                                               ; preds = %13
  br label %15

15:                                               ; preds = %14
  %16 = load i64, ptr @H5E_PLUGIN_g, align 8
  %17 = load i64, ptr @H5E_CANTDELETE_g, align 8
  %18 = load i32, ptr %2, align 4
  %19 = call i32 (ptr, ptr, i32, i64, i64, ptr, ...) @H5E_printf_stack(ptr noundef @.str, ptr noundef @__func__.H5PL__remove_path, i32 noundef 510, i64 noundef %16, i64 noundef %17, ptr noundef @.str.11, i32 noundef %18)
  br label %20

20:                                               ; preds = %15
  store i8 1, ptr %5, align 1
  %21 = load i8, ptr %5, align 1
  %22 = trunc i8 %21 to i1
  %23 = zext i1 %22 to i8
  store i8 %23, ptr %5, align 1
  br label %24

24:                                               ; preds = %20
  br label %25

25:                                               ; preds = %24
  store i32 -1, ptr %4, align 4
  br label %65

26:                                               ; No predecessors!
  br label %27

27:                                               ; preds = %26
  br label %28

28:                                               ; preds = %27, %1
  %29 = load i32, ptr @H5PL_num_paths_g, align 4
  %30 = add i32 %29, -1
  store i32 %30, ptr @H5PL_num_paths_g, align 4
  %31 = load ptr, ptr @H5PL_paths_g, align 8
  %32 = load i32, ptr %2, align 4
  %33 = zext i32 %32 to i64
  %34 = getelementptr inbounds ptr, ptr %31, i64 %33
  %35 = load ptr, ptr %34, align 8
  %36 = call ptr @H5MM_xfree(ptr noundef %35)
  %37 = load ptr, ptr @H5PL_paths_g, align 8
  %38 = load i32, ptr %2, align 4
  %39 = zext i32 %38 to i64
  %40 = getelementptr inbounds ptr, ptr %37, i64 %39
  store ptr %36, ptr %40, align 8
  %41 = load i32, ptr %2, align 4
  store i32 %41, ptr %3, align 4
  br label %42

42:                                               ; preds = %57, %28
  %43 = load i32, ptr %3, align 4
  %44 = load i32, ptr @H5PL_num_paths_g, align 4
  %45 = icmp ult i32 %43, %44
  br i1 %45, label %46, label %60

46:                                               ; preds = %42
  %47 = load ptr, ptr @H5PL_paths_g, align 8
  %48 = load i32, ptr %3, align 4
  %49 = add i32 %48, 1
  %50 = zext i32 %49 to i64
  %51 = getelementptr inbounds ptr, ptr %47, i64 %50
  %52 = load ptr, ptr %51, align 8
  %53 = load ptr, ptr @H5PL_paths_g, align 8
  %54 = load i32, ptr %3, align 4
  %55 = zext i32 %54 to i64
  %56 = getelementptr inbounds ptr, ptr %53, i64 %55
  store ptr %52, ptr %56, align 8
  br label %57

57:                                               ; preds = %46
  %58 = load i32, ptr %3, align 4
  %59 = add i32 %58, 1
  store i32 %59, ptr %3, align 4
  br label %42

60:                                               ; preds = %42
  %61 = load ptr, ptr @H5PL_paths_g, align 8
  %62 = load i32, ptr @H5PL_num_paths_g, align 4
  %63 = zext i32 %62 to i64
  %64 = getelementptr inbounds ptr, ptr %61, i64 %63
  store ptr null, ptr %64, align 8
  br label %65

65:                                               ; preds = %60, %25
  %66 = load i32, ptr %4, align 4
  ret i32 %66
}