; Function Attrs: nounwind uwtable
define range(i32 -1, 1) i32 @H5PL__remove_path(i32 noundef %0) local_unnamed_addr #0 {
  %2 = load ptr, ptr @H5PL_paths_g, align 8
  %3 = zext i32 %0 to i64
  %4 = getelementptr inbounds ptr, ptr %2, i64 %3
  %5 = load ptr, ptr %4, align 8
  %.not = icmp eq ptr %5, null
  br i1 %.not, label %6, label %10

6:                                                ; preds = %1
  %7 = load i64, ptr @H5E_PLUGIN_g, align 8
  %8 = load i64, ptr @H5E_CANTDELETE_g, align 8
  %9 = tail call i32 (ptr, ptr, i32, i64, i64, ptr, ...) @H5E_printf_stack(ptr noundef nonnull @.str, ptr noundef nonnull @__func__.H5PL__remove_path, i32 noundef 510, i64 noundef %7, i64 noundef %8, ptr noundef nonnull @.str.11, i32 noundef %0) #13
  br label %22

10:                                               ; preds = %1
  %11 = load i32, ptr @H5PL_num_paths_g, align 4
  %12 = add i32 %11, -1
  store i32 %12, ptr @H5PL_num_paths_g, align 4
  %13 = tail call ptr @H5MM_xfree(ptr noundef nonnull %5) #13
  %14 = load ptr, ptr @H5PL_paths_g, align 8
  %15 = getelementptr inbounds ptr, ptr %14, i64 %3
  store ptr %13, ptr %15, align 8
  %16 = load i32, ptr @H5PL_num_paths_g, align 4
  %17 = icmp ugt i32 %16, %0
  %wide.trip.count = zext i32 %16 to i64
  br i1 %17, label %.lr.ph, label %._crit_edge

.lr.ph:                                           ; preds = %10, %.lr.ph
  %indvars.iv = phi i64 [ %indvars.iv.next, %.lr.ph ], [ %3, %10 ]
  %indvars.iv.next = add nuw nsw i64 %indvars.iv, 1
  %18 = getelementptr inbounds ptr, ptr %14, i64 %indvars.iv.next
  %19 = load ptr, ptr %18, align 8
  %20 = getelementptr inbounds ptr, ptr %14, i64 %indvars.iv
  store ptr %19, ptr %20, align 8
  %exitcond.not = icmp eq i64 %indvars.iv.next, %wide.trip.count
  br i1 %exitcond.not, label %._crit_edge, label %.lr.ph

._crit_edge:                                      ; preds = %.lr.ph, %10
  %21 = getelementptr inbounds ptr, ptr %14, i64 %wide.trip.count
  store ptr null, ptr %21, align 8
  br label %22

22:                                               ; preds = %._crit_edge, %6
  %.0 = phi i32 [ 0, %._crit_edge ], [ -1, %6 ]
  ret i32 %.0
}